; Function Attrs: mustprogress nofree norecurse nosync nounwind willreturn memory(read, inaccessiblemem: none) uwtable
define noundef zeroext i1 @_ZNK32pxrInternal_v0_24__pxrReserved__7GfVec3feqERKNS_7GfVec3hE(ptr nocapture noundef nonnull readonly align 4 dereferenceable(12) %0, ptr nocapture noundef nonnull readonly align 2 dereferenceable(6) %1) local_unnamed_addr #3 align 2 {
  %3 = load float, ptr %0, align 4
  %4 = load i16, ptr %1, align 2
  %5 = zext i16 %4 to i64
  %6 = getelementptr inbounds [65536 x %"union.pxrInternal_v0_24__pxrReserved__::pxr_half::half::uif"], ptr @_ZN32pxrInternal_v0_24__pxrReserved__8pxr_half4half8_toFloatE, i64 0, i64 %5
  %7 = load float, ptr %6, align 4
  %8 = fcmp oeq float %3, %7
  br i1 %8, label %9, label %27

9:                                                ; preds = %2
  %10 = getelementptr inbounds i8, ptr %0, i64 4
  %11 = load float, ptr %10, align 4
  %12 = getelementptr inbounds i8, ptr %1, i64 2
  %13 = load i16, ptr %12, align 2
  %14 = zext i16 %13 to i64
  %15 = getelementptr inbounds [65536 x %"union.pxrInternal_v0_24__pxrReserved__::pxr_half::half::uif"], ptr @_ZN32pxrInternal_v0_24__pxrReserved__8pxr_half4half8_toFloatE, i64 0, i64 %14
  %16 = load float, ptr %15, align 4
  %17 = fcmp oeq float %11, %16
  br i1 %17, label %18, label %27

18:                                               ; preds = %9
  %19 = getelementptr inbounds i8, ptr %0, i64 8
  %20 = load float, ptr %19, align 4
  %21 = getelementptr inbounds i8, ptr %1, i64 4
  %22 = load i16, ptr %21, align 2
  %23 = zext i16 %22 to i64
  %24 = getelementptr inbounds [65536 x %"union.pxrInternal_v0_24__pxrReserved__::pxr_half::half::uif"], ptr @_ZN32pxrInternal_v0_24__pxrReserved__8pxr_half4half8_toFloatE, i64 0, i64 %23
  %25 = load float, ptr %24, align 4
  %26 = fcmp oeq float %20, %25
  br label %27

27:                                               ; preds = %18, %9, %2
  %28 = phi i1 [ false, %9 ], [ false, %2 ], [ %26, %18 ]
  ret i1 %28
}